target datalayout = "e-m:e-p270:32:32-p271:32:32-p272:64:64-i64:64-i128:128-f80:128-n8:16:32:64-S128"
target triple = "x86_64-pc-linux-gnu"

%struct.AVVorbisParseContext = type { ptr, i32, i32, [2 x i32], i32, [64 x i32], i32, i32, i32 }

@.str = private unnamed_addr constant [38 x i8] c"Ignoring packet with unknown type %u\0A\00", align 1
@.str.1 = private unnamed_addr constant [16 x i8] c"Invalid packet\0A\00", align 1
@.str.2 = private unnamed_addr constant [24 x i8] c"Invalid mode in packet\0A\00", align 1

; Function Attrs: nounwind uwtable
define i32 @av_vorbis_parse_frame_flags(ptr noundef %0, ptr noundef %1, i32 noundef %2, ptr noundef %3) #0 {
  %5 = alloca i32, align 4
  %6 = alloca ptr, align 8
  %7 = alloca ptr, align 8
  %8 = alloca i32, align 4
  %9 = alloca ptr, align 8
  %10 = alloca i32, align 4
  %11 = alloca i32, align 4
  %12 = alloca i32, align 4
  %13 = alloca i32, align 4
  %14 = alloca i32, align 4
  %15 = alloca i32, align 4
  store ptr %0, ptr %6, align 8, !tbaa !4
  store ptr %1, ptr %7, align 8, !tbaa !9
  store i32 %2, ptr %8, align 4, !tbaa !11
  store ptr %3, ptr %9, align 8, !tbaa !13
  call void @llvm.lifetime.start.p0(i64 4, ptr %10) #7
  store i32 0, ptr %10, align 4, !tbaa !11
  %16 = load ptr, ptr %6, align 8, !tbaa !4
  %17 = getelementptr inbounds nuw %struct.AVVorbisParseContext, ptr %16, i32 0, i32 2
  %18 = load i32, ptr %17, align 4, !tbaa !15
  %19 = icmp ne i32 %18, 0
  br i1 %19, label %20, label %151

20:                                               ; preds = %4
  %21 = load i32, ptr %8, align 4, !tbaa !11
  %22 = icmp sgt i32 %21, 0
  br i1 %22, label %23, label %151

23:                                               ; preds = %20
  call void @llvm.lifetime.start.p0(i64 4, ptr %11) #7
  call void @llvm.lifetime.start.p0(i64 4, ptr %12) #7
  call void @llvm.lifetime.start.p0(i64 4, ptr %13) #7
  %24 = load ptr, ptr %6, align 8, !tbaa !4
  %25 = getelementptr inbounds nuw %struct.AVVorbisParseContext, ptr %24, i32 0, i32 4
  %26 = load i32, ptr %25, align 8, !tbaa !18
  store i32 %26, ptr %13, align 4, !tbaa !11
  %27 = load ptr, ptr %7, align 8, !tbaa !9
  %28 = getelementptr inbounds i8, ptr %27, i64 0
  %29 = load i8, ptr %28, align 1, !tbaa !19
  %30 = zext i8 %29 to i32
  %31 = and i32 %30, 1
  %32 = icmp ne i32 %31, 0
  br i1 %32, label %33, label %78

33:                                               ; preds = %23
  %34 = load ptr, ptr %9, align 8, !tbaa !13
  %35 = icmp ne ptr %34, null
  br i1 %35, label %37, label %36

36:                                               ; preds = %33
  br label %76

37:                                               ; preds = %33
  %38 = load ptr, ptr %7, align 8, !tbaa !9
  %39 = getelementptr inbounds i8, ptr %38, i64 0
  %40 = load i8, ptr %39, align 1, !tbaa !19
  %41 = zext i8 %40 to i32
  %42 = icmp eq i32 %41, 1
  br i1 %42, label %43, label %47

43:                                               ; preds = %37
  %44 = load ptr, ptr %9, align 8, !tbaa !13
  %45 = load i32, ptr %44, align 4, !tbaa !11
  %46 = or i32 %45, 1
  store i32 %46, ptr %44, align 4, !tbaa !11
  br label %75

47:                                               ; preds = %37
  %48 = load ptr, ptr %7, align 8, !tbaa !9
  %49 = getelementptr inbounds i8, ptr %48, i64 0
  %50 = load i8, ptr %49, align 1, !tbaa !19
  %51 = zext i8 %50 to i32
  %52 = icmp eq i32 %51, 3
  br i1 %52, label %53, label %57

53:                                               ; preds = %47
  %54 = load ptr, ptr %9, align 8, !tbaa !13
  %55 = load i32, ptr %54, align 4, !tbaa !11
  %56 = or i32 %55, 2
  store i32 %56, ptr %54, align 4, !tbaa !11
  br label %74

57:                                               ; preds = %47
  %58 = load ptr, ptr %7, align 8, !tbaa !9
  %59 = getelementptr inbounds i8, ptr %58, i64 0
  %60 = load i8, ptr %59, align 1, !tbaa !19
  %61 = zext i8 %60 to i32
  %62 = icmp eq i32 %61, 5
  br i1 %62, label %63, label %67

63:                                               ; preds = %57
  %64 = load ptr, ptr %9, align 8, !tbaa !13
  %65 = load i32, ptr %64, align 4, !tbaa !11
  %66 = or i32 %65, 4
  store i32 %66, ptr %64, align 4, !tbaa !11
  br label %73

67:                                               ; preds = %57
  %68 = load ptr, ptr %6, align 8, !tbaa !4
  %69 = load ptr, ptr %7, align 8, !tbaa !9
  %70 = getelementptr inbounds i8, ptr %69, i64 0
  %71 = load i8, ptr %70, align 1, !tbaa !19
  %72 = zext i8 %71 to i32
  call void (ptr, i32, ptr, ...) @av_log(ptr noundef %68, i32 noundef 40, ptr noundef @.str, i32 noundef %72)
  br label %73

73:                                               ; preds = %67, %63
  br label %74

74:                                               ; preds = %73, %53
  br label %75

75:                                               ; preds = %74, %43
  store i32 0, ptr %5, align 4
  store i32 1, ptr %14, align 4
  br label %148

76:                                               ; preds = %36
  %77 = load ptr, ptr %6, align 8, !tbaa !4
  call void (ptr, i32, ptr, ...) @av_log(ptr noundef %77, i32 noundef 16, ptr noundef @.str.1)
  store i32 -1094995529, ptr %5, align 4
  store i32 1, ptr %14, align 4
  br label %148

78:                                               ; preds = %23
  %79 = load ptr, ptr %6, align 8, !tbaa !4
  %80 = getelementptr inbounds nuw %struct.AVVorbisParseContext, ptr %79, i32 0, i32 6
  %81 = load i32, ptr %80, align 4, !tbaa !20
  %82 = icmp eq i32 %81, 1
  br i1 %82, label %83, label %84

83:                                               ; preds = %78
  store i32 0, ptr %11, align 4, !tbaa !11
  br label %94

84:                                               ; preds = %78
  %85 = load ptr, ptr %7, align 8, !tbaa !9
  %86 = getelementptr inbounds i8, ptr %85, i64 0
  %87 = load i8, ptr %86, align 1, !tbaa !19
  %88 = zext i8 %87 to i32
  %89 = load ptr, ptr %6, align 8, !tbaa !4
  %90 = getelementptr inbounds nuw %struct.AVVorbisParseContext, ptr %89, i32 0, i32 7
  %91 = load i32, ptr %90, align 8, !tbaa !21
  %92 = and i32 %88, %91
  %93 = ashr i32 %92, 1
  store i32 %93, ptr %11, align 4, !tbaa !11
  br label %94

94:                                               ; preds = %84, %83
  %95 = load i32, ptr %11, align 4, !tbaa !11
  %96 = load ptr, ptr %6, align 8, !tbaa !4
  %97 = getelementptr inbounds nuw %struct.AVVorbisParseContext, ptr %96, i32 0, i32 6
  %98 = load i32, ptr %97, align 4, !tbaa !20
  %99 = icmp sge i32 %95, %98
  br i1 %99, label %100, label %102

100:                                              ; preds = %94
  %101 = load ptr, ptr %6, align 8, !tbaa !4
  call void (ptr, i32, ptr, ...) @av_log(ptr noundef %101, i32 noundef 16, ptr noundef @.str.2)
  store i32 -1094995529, ptr %5, align 4
  store i32 1, ptr %14, align 4
  br label %148

102:                                              ; preds = %94
  %103 = load ptr, ptr %6, align 8, !tbaa !4
  %104 = getelementptr inbounds nuw %struct.AVVorbisParseContext, ptr %103, i32 0, i32 5
  %105 = load i32, ptr %11, align 4, !tbaa !11
  %106 = sext i32 %105 to i64
  %107 = getelementptr inbounds [64 x i32], ptr %104, i64 0, i64 %106
  %108 = load i32, ptr %107, align 4, !tbaa !11
  %109 = icmp ne i32 %108, 0
  br i1 %109, label %110, label %129

110:                                              ; preds = %102
  call void @llvm.lifetime.start.p0(i64 4, ptr %15) #7
  %111 = load ptr, ptr %7, align 8, !tbaa !9
  %112 = getelementptr inbounds i8, ptr %111, i64 0
  %113 = load i8, ptr %112, align 1, !tbaa !19
  %114 = zext i8 %113 to i32
  %115 = load ptr, ptr %6, align 8, !tbaa !4
  %116 = getelementptr inbounds nuw %struct.AVVorbisParseContext, ptr %115, i32 0, i32 8
  %117 = load i32, ptr %116, align 4, !tbaa !22
  %118 = and i32 %114, %117
  %119 = icmp ne i32 %118, 0
  %120 = xor i1 %119, true
  %121 = xor i1 %120, true
  %122 = zext i1 %121 to i32
  store i32 %122, ptr %15, align 4, !tbaa !11
  %123 = load ptr, ptr %6, align 8, !tbaa !4
  %124 = getelementptr inbounds nuw %struct.AVVorbisParseContext, ptr %123, i32 0, i32 3
  %125 = load i32, ptr %15, align 4, !tbaa !11
  %126 = sext i32 %125 to i64
  %127 = getelementptr inbounds [2 x i32], ptr %124, i64 0, i64 %126
  %128 = load i32, ptr %127, align 4, !tbaa !11
  store i32 %128, ptr %13, align 4, !tbaa !11
  call void @llvm.lifetime.end.p0(i64 4, ptr %15) #7
  br label %129

129:                                              ; preds = %110, %102
  %130 = load ptr, ptr %6, align 8, !tbaa !4
  %131 = getelementptr inbounds nuw %struct.AVVorbisParseContext, ptr %130, i32 0, i32 3
  %132 = load ptr, ptr %6, align 8, !tbaa !4
  %133 = getelementptr inbounds nuw %struct.AVVorbisParseContext, ptr %132, i32 0, i32 5
  %134 = load i32, ptr %11, align 4, !tbaa !11
  %135 = sext i32 %134 to i64
  %136 = getelementptr inbounds [64 x i32], ptr %133, i64 0, i64 %135
  %137 = load i32, ptr %136, align 4, !tbaa !11
  %138 = sext i32 %137 to i64
  %139 = getelementptr inbounds [2 x i32], ptr %131, i64 0, i64 %138
  %140 = load i32, ptr %139, align 4, !tbaa !11
  store i32 %140, ptr %12, align 4, !tbaa !11
  %141 = load i32, ptr %13, align 4, !tbaa !11
  %142 = load i32, ptr %12, align 4, !tbaa !11
  %143 = add nsw i32 %141, %142
  %144 = ashr i32 %143, 2
  store i32 %144, ptr %10, align 4, !tbaa !11
  %145 = load i32, ptr %12, align 4, !tbaa !11
  %146 = load ptr, ptr %6, align 8, !tbaa !4
  %147 = getelementptr inbounds nuw %struct.AVVorbisParseContext, ptr %146, i32 0, i32 4
  store i32 %145, ptr %147, align 8, !tbaa !18
  store i32 0, ptr %14, align 4
  br label %148

148:                                              ; preds = %129, %100, %76, %75
  call void @llvm.lifetime.end.p0(i64 4, ptr %13) #7
  call void @llvm.lifetime.end.p0(i64 4, ptr %12) #7
  call void @llvm.lifetime.end.p0(i64 4, ptr %11) #7
  %149 = load i32, ptr %14, align 4
  switch i32 %149, label %153 [
    i32 0, label %150
  ]

150:                                              ; preds = %148
  br label %151

151:                                              ; preds = %150, %20, %4
  %152 = load i32, ptr %10, align 4, !tbaa !11
  store i32 %152, ptr %5, align 4
  store i32 1, ptr %14, align 4
  br label %153

153:                                              ; preds = %151, %148
  call void @llvm.lifetime.end.p0(i64 4, ptr %10) #7
  %154 = load i32, ptr %5, align 4
  ret i32 %154
}

; Function Attrs: nounwind uwtable
define i32 @av_vorbis_parse_frame(ptr noundef %0, ptr noundef %1, i32 noundef %2) #0 {
  %4 = alloca ptr, align 8
  %5 = alloca ptr, align 8
  %6 = alloca i32, align 4
  store ptr %0, ptr %4, align 8, !tbaa !4
  store ptr %1, ptr %5, align 8, !tbaa !9
  store i32 %2, ptr %6, align 4, !tbaa !11
  %7 = load ptr, ptr %4, align 8, !tbaa !4
  %8 = load ptr, ptr %5, align 8, !tbaa !9
  %9 = load i32, ptr %6, align 4, !tbaa !11
  %10 = call i32 @av_vorbis_parse_frame_flags(ptr noundef %7, ptr noundef %8, i32 noundef %9, ptr noundef null)
  ret i32 %10
}