; Function Attrs: nounwind uwtable
define range(i32 -1094995529, 536870912) i32 @av_vorbis_parse_frame(ptr noundef %0, ptr noundef readonly captures(none) %1, i32 noundef %2) local_unnamed_addr #0 {
  %4 = getelementptr inbounds nuw i8, ptr %0, i64 12
  %5 = load i32, ptr %4, align 4, !tbaa !4
  %6 = icmp ne i32 %5, 0
  %7 = icmp sgt i32 %2, 0
  %or.cond.i = and i1 %7, %6
  br i1 %or.cond.i, label %8, label %av_vorbis_parse_frame_flags.exit

8:                                                ; preds = %3
  %9 = getelementptr inbounds nuw i8, ptr %0, i64 24
  %10 = load i32, ptr %9, align 8, !tbaa !11
  %11 = load i8, ptr %1, align 1, !tbaa !12
  %12 = zext i8 %11 to i32
  %13 = and i32 %12, 1
  %.not.i = icmp eq i32 %13, 0
  br i1 %.not.i, label %15, label %14

14:                                               ; preds = %8
  tail call void (ptr, i32, ptr, ...) @av_log(ptr noundef nonnull %0, i32 noundef 16, ptr noundef nonnull @.str.1) #6
  br label %av_vorbis_parse_frame_flags.exit

15:                                               ; preds = %8
  %16 = getelementptr inbounds nuw i8, ptr %0, i64 284
  %17 = load i32, ptr %16, align 4, !tbaa !14
  %18 = icmp eq i32 %17, 1
  br i1 %18, label %24, label %19

19:                                               ; preds = %15
  %20 = getelementptr inbounds nuw i8, ptr %0, i64 288
  %21 = load i32, ptr %20, align 8, !tbaa !15
  %22 = and i32 %21, %12
  %23 = lshr exact i32 %22, 1
  br label %24

24:                                               ; preds = %19, %15
  %.040.i = phi i32 [ %23, %19 ], [ 0, %15 ]
  %.not43.i = icmp slt i32 %.040.i, %17
  br i1 %.not43.i, label %26, label %25

25:                                               ; preds = %24
  tail call void (ptr, i32, ptr, ...) @av_log(ptr noundef nonnull %0, i32 noundef 16, ptr noundef nonnull @.str.2) #6
  br label %av_vorbis_parse_frame_flags.exit

26:                                               ; preds = %24
  %27 = getelementptr inbounds nuw i8, ptr %0, i64 28
  %28 = zext nneg i32 %.040.i to i64
  %29 = getelementptr inbounds nuw [64 x i32], ptr %27, i64 0, i64 %28
  %30 = load i32, ptr %29, align 4, !tbaa !13
  %.not44.i = icmp eq i32 %30, 0
  br i1 %.not44.i, label %40, label %31

31:                                               ; preds = %26
  %32 = getelementptr inbounds nuw i8, ptr %0, i64 292
  %33 = load i32, ptr %32, align 4, !tbaa !16
  %34 = and i32 %33, %12
  %35 = icmp ne i32 %34, 0
  %36 = getelementptr inbounds nuw i8, ptr %0, i64 16
  %37 = zext i1 %35 to i64
  %38 = getelementptr inbounds nuw [2 x i32], ptr %36, i64 0, i64 %37
  %39 = load i32, ptr %38, align 4, !tbaa !13
  br label %40

40:                                               ; preds = %31, %26
  %.037.i = phi i32 [ %39, %31 ], [ %10, %26 ]
  %41 = getelementptr inbounds nuw i8, ptr %0, i64 16
  %42 = sext i32 %30 to i64
  %43 = getelementptr inbounds [2 x i32], ptr %41, i64 0, i64 %42
  %44 = load i32, ptr %43, align 4, !tbaa !13
  %45 = add nsw i32 %44, %.037.i
  %46 = ashr i32 %45, 2
  store i32 %44, ptr %9, align 8, !tbaa !11
  br label %av_vorbis_parse_frame_flags.exit

av_vorbis_parse_frame_flags.exit:                 ; preds = %3, %14, %25, %40
  %.1.i = phi i32 [ 0, %3 ], [ %46, %40 ], [ -1094995529, %25 ], [ -1094995529, %14 ]
  ret i32 %.1.i
}